target datalayout = "e-m:e-p270:32:32-p271:32:32-p272:64:64-i64:64-i128:128-f80:128-n8:16:32:64-S128"
target triple = "x86_64-pc-linux-gnu"

%"class.gmx::ResetHandler" = type { ptr, i8, i8, float }
%"class.gmx::SimulationSignal" = type { i8, i8, i8 }

; Function Attrs: mustprogress uwtable
define noundef zeroext i1 @_ZN3gmx12ResetHandler13setSignalImplEP23gmx_walltime_accounting(ptr noundef nonnull align 8 dereferenceable(16) %0, ptr noundef %1) #0 align 2 {
  %3 = alloca i1, align 1
  %4 = alloca ptr, align 8
  %5 = alloca ptr, align 8
  %6 = alloca double, align 8
  store ptr %0, ptr %4, align 8
  store ptr %1, ptr %5, align 8
  %7 = load ptr, ptr %4, align 8
  %8 = load ptr, ptr %5, align 8
  %9 = call noundef double @_Z40walltime_accounting_get_time_since_startP23gmx_walltime_accounting(ptr noundef %8)
  store double %9, ptr %6, align 8
  %10 = load double, ptr %6, align 8
  %11 = getelementptr inbounds %"class.gmx::ResetHandler", ptr %7, i32 0, i32 3
  %12 = load float, ptr %11, align 4
  %13 = fpext float %12 to double
  %14 = fmul double %13, 6.000000e+01
  %15 = fmul double %14, 6.000000e+01
  %16 = fmul double %15, 4.950000e-01
  %17 = fcmp ogt double %10, %16
  br i1 %17, label %18, label %22

18:                                               ; preds = %2
  %19 = getelementptr inbounds %"class.gmx::ResetHandler", ptr %7, i32 0, i32 0
  %20 = load ptr, ptr %19, align 8
  %21 = getelementptr inbounds %"class.gmx::SimulationSignal", ptr %20, i32 0, i32 0
  store i8 1, ptr %21, align 1
  store i1 true, ptr %3, align 1
  br label %23

22:                                               ; preds = %2
  store i1 false, ptr %3, align 1
  br label %23

23:                                               ; preds = %22, %18
  %24 = load i1, ptr %3, align 1
  ret i1 %24
}