; Function Attrs: mustprogress uwtable
define noundef zeroext i1 @_ZN3gmx12ResetHandler13setSignalImplEP23gmx_walltime_accounting(ptr nocapture noundef nonnull readonly align 8 dereferenceable(16) %0, ptr noundef %1) local_unnamed_addr #0 align 2 {
  %3 = tail call noundef double @_Z40walltime_accounting_get_time_since_startP23gmx_walltime_accounting(ptr noundef %1)
  %4 = getelementptr inbounds i8, ptr %0, i64 12
  %5 = load float, ptr %4, align 4
  %6 = fpext float %5 to double
  %7 = fmul double %6, 6.000000e+01
  %8 = fmul double %7, 6.000000e+01
  %9 = fmul double %8, 4.950000e-01
  %10 = fcmp ogt double %3, %9
  br i1 %10, label %11, label %13

11:                                               ; preds = %2
  %12 = load ptr, ptr %0, align 8
  store i8 1, ptr %12, align 1
  br label %13

13:                                               ; preds = %2, %11
  ret i1 %10
}